target datalayout = "e-m:e-p270:32:32-p271:32:32-p272:64:64-i64:64-i128:128-f80:128-n8:16:32:64-S128"
target triple = "x86_64-unknown-linux-gnu"

%"class.OpenColorIO_v2_4dev::DisplayViewTransform" = type { %"class.OpenColorIO_v2_4dev::Transform", ptr }
%"class.OpenColorIO_v2_4dev::Transform" = type { ptr }
%"class.OpenColorIO_v2_4dev::DisplayViewTransform::Impl" = type <{ i32, [4 x i8], %"class.std::__cxx11::basic_string", %"class.std::__cxx11::basic_string", %"class.std::__cxx11::basic_string", i8, i8, [6 x i8] }>
%"class.std::__cxx11::basic_string" = type { %"struct.std::__cxx11::basic_string<char>::_Alloc_hider", i64, %union.anon }
%"struct.std::__cxx11::basic_string<char>::_Alloc_hider" = type { ptr }
%union.anon = type { i64, [8 x i8] }

@.str.5 = private unnamed_addr constant [23 x i8] c"<DisplayViewTransform \00", align 1
@.str.6 = private unnamed_addr constant [11 x i8] c"direction=\00", align 1
@.str.7 = private unnamed_addr constant [3 x i8] c", \00", align 1
@.str.8 = private unnamed_addr constant [5 x i8] c"src=\00", align 1
@.str.9 = private unnamed_addr constant [9 x i8] c"display=\00", align 1
@.str.10 = private unnamed_addr constant [6 x i8] c"view=\00", align 1
@.str.11 = private unnamed_addr constant [15 x i8] c", looksBypass=\00", align 1
@.str.12 = private unnamed_addr constant [14 x i8] c", dataBypass=\00", align 1
@.str.13 = private unnamed_addr constant [2 x i8] c">\00", align 1

; Function Attrs: noreturn nounwind uwtable
define linkonce_odr hidden void @__clang_call_terminate(ptr noundef %0) #4 comdat {
  %2 = call ptr @__cxa_begin_catch(ptr %0) #13
  call void @_ZSt9terminatev() #14
  unreachable
}

; Function Attrs: mustprogress nounwind uwtable
define linkonce_odr hidden noundef ptr @_ZNK19OpenColorIO_v2_4dev20DisplayViewTransform7getImplEv(ptr noundef nonnull align 8 dereferenceable(16) %this) #3 comdat align 2 {
entry:
  %this.addr = alloca ptr, align 8
  store ptr %this, ptr %this.addr, align 8
  %this1 = load ptr, ptr %this.addr, align 8
  %m_impl = getelementptr inbounds %"class.OpenColorIO_v2_4dev::DisplayViewTransform", ptr %this1, i32 0, i32 1
  %0 = load ptr, ptr %m_impl, align 8
  ret ptr %0
}

; Function Attrs: mustprogress nounwind uwtable
define noundef zeroext i1 @_ZNK19OpenColorIO_v2_4dev20DisplayViewTransform13getDataBypassEv(ptr noundef nonnull align 8 dereferenceable(16) %this) #3 align 2 personality ptr @__gxx_personality_v0 {
entry:
  %this.addr = alloca ptr, align 8
  store ptr %this, ptr %this.addr, align 8
  %this1 = load ptr, ptr %this.addr, align 8
  %call = invoke noundef ptr @_ZNK19OpenColorIO_v2_4dev20DisplayViewTransform7getImplEv(ptr noundef nonnull align 8 dereferenceable(16) %this1)
          to label %invoke.cont unwind label %terminate.lpad

invoke.cont:                                      ; preds = %entry
  %m_dataBypass = getelementptr inbounds %"class.OpenColorIO_v2_4dev::DisplayViewTransform::Impl", ptr %call, i32 0, i32 6
  %0 = load i8, ptr %m_dataBypass, align 1
  %tobool = trunc i8 %0 to i1
  ret i1 %tobool

terminate.lpad:                                   ; preds = %entry
  %1 = landingpad { ptr, i32 }
          catch ptr null
  %2 = extractvalue { ptr, i32 } %1, 0
  call void @__clang_call_terminate(ptr %2) #14
  unreachable
}

; Function Attrs: mustprogress uwtable
define noundef zeroext i1 @_ZNK19OpenColorIO_v2_4dev20DisplayViewTransform14getLooksBypassEv(ptr noundef nonnull align 8 dereferenceable(16) %this) #0 align 2 {
entry:
  %this.addr = alloca ptr, align 8
  store ptr %this, ptr %this.addr, align 8
  %this1 = load ptr, ptr %this.addr, align 8
  %call = call noundef ptr @_ZNK19OpenColorIO_v2_4dev20DisplayViewTransform7getImplEv(ptr noundef nonnull align 8 dereferenceable(16) %this1)
  %m_looksBypass = getelementptr inbounds %"class.OpenColorIO_v2_4dev::DisplayViewTransform::Impl", ptr %call, i32 0, i32 5
  %0 = load i8, ptr %m_looksBypass, align 8
  %tobool = trunc i8 %0 to i1
  ret i1 %tobool
}

; Function Attrs: mustprogress uwtable
define noundef ptr @_ZNK19OpenColorIO_v2_4dev20DisplayViewTransform7getViewEv(ptr noundef nonnull align 8 dereferenceable(16) %this) #0 align 2 {
entry:
  %this.addr = alloca ptr, align 8
  store ptr %this, ptr %this.addr, align 8
  %this1 = load ptr, ptr %this.addr, align 8
  %call = call noundef ptr @_ZNK19OpenColorIO_v2_4dev20DisplayViewTransform7getImplEv(ptr noundef nonnull align 8 dereferenceable(16) %this1)
  %m_view = getelementptr inbounds %"class.OpenColorIO_v2_4dev::DisplayViewTransform::Impl", ptr %call, i32 0, i32 4
  %call2 = call noundef ptr @_ZNKSt7__cxx1112basic_stringIcSt11char_traitsIcESaIcEE5c_strEv(ptr noundef nonnull align 8 dereferenceable(32) %m_view) #13
  ret ptr %call2
}

; Function Attrs: mustprogress uwtable
define noundef ptr @_ZNK19OpenColorIO_v2_4dev20DisplayViewTransform10getDisplayEv(ptr noundef nonnull align 8 dereferenceable(16) %this) #0 align 2 {
entry:
  %this.addr = alloca ptr, align 8
  store ptr %this, ptr %this.addr, align 8
  %this1 = load ptr, ptr %this.addr, align 8
  %call = call noundef ptr @_ZNK19OpenColorIO_v2_4dev20DisplayViewTransform7getImplEv(ptr noundef nonnull align 8 dereferenceable(16) %this1)
  %m_display = getelementptr inbounds %"class.OpenColorIO_v2_4dev::DisplayViewTransform::Impl", ptr %call, i32 0, i32 3
  %call2 = call noundef ptr @_ZNKSt7__cxx1112basic_stringIcSt11char_traitsIcESaIcEE5c_strEv(ptr noundef nonnull align 8 dereferenceable(32) %m_display) #13
  ret ptr %call2
}

; Function Attrs: mustprogress uwtable
define noundef ptr @_ZNK19OpenColorIO_v2_4dev20DisplayViewTransform6getSrcEv(ptr noundef nonnull align 8 dereferenceable(16) %this) #0 align 2 {
entry:
  %this.addr = alloca ptr, align 8
  store ptr %this, ptr %this.addr, align 8
  %this1 = load ptr, ptr %this.addr, align 8
  %call = call noundef ptr @_ZNK19OpenColorIO_v2_4dev20DisplayViewTransform7getImplEv(ptr noundef nonnull align 8 dereferenceable(16) %this1)
  %m_src = getelementptr inbounds %"class.OpenColorIO_v2_4dev::DisplayViewTransform::Impl", ptr %call, i32 0, i32 2
  %call2 = call noundef ptr @_ZNKSt7__cxx1112basic_stringIcSt11char_traitsIcESaIcEE5c_strEv(ptr noundef nonnull align 8 dereferenceable(32) %m_src) #13
  ret ptr %call2
}

; Function Attrs: mustprogress uwtable
define noundef nonnull align 8 dereferenceable(8) ptr @_ZN19OpenColorIO_v2_4devlsERSoRKNS_20DisplayViewTransformE(ptr noundef nonnull align 8 dereferenceable(8) %os, ptr noundef nonnull align 8 dereferenceable(16) %t) #0 {
entry:
  %os.addr = alloca ptr, align 8
  %t.addr = alloca ptr, align 8
  store ptr %os, ptr %os.addr, align 8
  store ptr %t, ptr %t.addr, align 8
  %0 = load ptr, ptr %os.addr, align 8
  %call = call noundef nonnull align 8 dereferenceable(8) ptr @_ZStlsISt11char_traitsIcEERSt13basic_ostreamIcT_ES5_PKc(ptr noundef nonnull align 8 dereferenceable(8) %0, ptr noundef @.str.5)
  %1 = load ptr, ptr %os.addr, align 8
  %call1 = call noundef nonnull align 8 dereferenceable(8) ptr @_ZStlsISt11char_traitsIcEERSt13basic_ostreamIcT_ES5_PKc(ptr noundef nonnull align 8 dereferenceable(8) %1, ptr noundef @.str.6)
  %2 = load ptr, ptr %t.addr, align 8
  %vtable = load ptr, ptr %2, align 8
  %vfn = getelementptr inbounds ptr, ptr %vtable, i64 1
  %3 = load ptr, ptr %vfn, align 8
  %call2 = call noundef i32 %3(ptr noundef nonnull align 8 dereferenceable(16) %2) #13
  %call3 = call noundef ptr @_ZN19OpenColorIO_v2_4dev26TransformDirectionToStringENS_18TransformDirectionE(i32 noundef %call2)
  %call4 = call noundef nonnull align 8 dereferenceable(8) ptr @_ZStlsISt11char_traitsIcEERSt13basic_ostreamIcT_ES5_PKc(ptr noundef nonnull align 8 dereferenceable(8) %call1, ptr noundef %call3)
  %call5 = call noundef nonnull align 8 dereferenceable(8) ptr @_ZStlsISt11char_traitsIcEERSt13basic_ostreamIcT_ES5_PKc(ptr noundef nonnull align 8 dereferenceable(8) %call4, ptr noundef @.str.7)
  %4 = load ptr, ptr %os.addr, align 8
  %call6 = call noundef nonnull align 8 dereferenceable(8) ptr @_ZStlsISt11char_traitsIcEERSt13basic_ostreamIcT_ES5_PKc(ptr noundef nonnull align 8 dereferenceable(8) %4, ptr noundef @.str.8)
  %5 = load ptr, ptr %t.addr, align 8
  %call7 = call noundef ptr @_ZNK19OpenColorIO_v2_4dev20DisplayViewTransform6getSrcEv(ptr noundef nonnull align 8 dereferenceable(16) %5)
  %call8 = call noundef nonnull align 8 dereferenceable(8) ptr @_ZStlsISt11char_traitsIcEERSt13basic_ostreamIcT_ES5_PKc(ptr noundef nonnull align 8 dereferenceable(8) %call6, ptr noundef %call7)
  %call9 = call noundef nonnull align 8 dereferenceable(8) ptr @_ZStlsISt11char_traitsIcEERSt13basic_ostreamIcT_ES5_PKc(ptr noundef nonnull align 8 dereferenceable(8) %call8, ptr noundef @.str.7)
  %6 = load ptr, ptr %os.addr, align 8
  %call10 = call noundef nonnull align 8 dereferenceable(8) ptr @_ZStlsISt11char_traitsIcEERSt13basic_ostreamIcT_ES5_PKc(ptr noundef nonnull align 8 dereferenceable(8) %6, ptr noundef @.str.9)
  %7 = load ptr, ptr %t.addr, align 8
  %call11 = call noundef ptr @_ZNK19OpenColorIO_v2_4dev20DisplayViewTransform10getDisplayEv(ptr noundef nonnull align 8 dereferenceable(16) %7)
  %call12 = call noundef nonnull align 8 dereferenceable(8) ptr @_ZStlsISt11char_traitsIcEERSt13basic_ostreamIcT_ES5_PKc(ptr noundef nonnull align 8 dereferenceable(8) %call10, ptr noundef %call11)
  %call13 = call noundef nonnull align 8 dereferenceable(8) ptr @_ZStlsISt11char_traitsIcEERSt13basic_ostreamIcT_ES5_PKc(ptr noundef nonnull align 8 dereferenceable(8) %call12, ptr noundef @.str.7)
  %8 = load ptr, ptr %os.addr, align 8
  %call14 = call noundef nonnull align 8 dereferenceable(8) ptr @_ZStlsISt11char_traitsIcEERSt13basic_ostreamIcT_ES5_PKc(ptr noundef nonnull align 8 dereferenceable(8) %8, ptr noundef @.str.10)
  %9 = load ptr, ptr %t.addr, align 8
  %call15 = call noundef ptr @_ZNK19OpenColorIO_v2_4dev20DisplayViewTransform7getViewEv(ptr noundef nonnull align 8 dereferenceable(16) %9)
  %call16 = call noundef nonnull align 8 dereferenceable(8) ptr @_ZStlsISt11char_traitsIcEERSt13basic_ostreamIcT_ES5_PKc(ptr noundef nonnull align 8 dereferenceable(8) %call14, ptr noundef %call15)
  %call17 = call noundef nonnull align 8 dereferenceable(8) ptr @_ZStlsISt11char_traitsIcEERSt13basic_ostreamIcT_ES5_PKc(ptr noundef nonnull align 8 dereferenceable(8) %call16, ptr noundef @.str.7)
  %10 = load ptr, ptr %t.addr, align 8
  %call18 = call noundef zeroext i1 @_ZNK19OpenColorIO_v2_4dev20DisplayViewTransform14getLooksBypassEv(ptr noundef nonnull align 8 dereferenceable(16) %10)
  br i1 %call18, label %if.then, label %if.end

if.then:                                          ; preds = %entry
  %11 = load ptr, ptr %os.addr, align 8
  %call19 = call noundef nonnull align 8 dereferenceable(8) ptr @_ZStlsISt11char_traitsIcEERSt13basic_ostreamIcT_ES5_PKc(ptr noundef nonnull align 8 dereferenceable(8) %11, ptr noundef @.str.11)
  %12 = load ptr, ptr %t.addr, align 8
  %call20 = call noundef zeroext i1 @_ZNK19OpenColorIO_v2_4dev20DisplayViewTransform14getLooksBypassEv(ptr noundef nonnull align 8 dereferenceable(16) %12)
  %call21 = call noundef nonnull align 8 dereferenceable(8) ptr @_ZNSolsEb(ptr noundef nonnull align 8 dereferenceable(8) %call19, i1 noundef zeroext %call20)
  br label %if.end

if.end:                                           ; preds = %if.then, %entry
  %13 = load ptr, ptr %t.addr, align 8
  %call22 = call noundef zeroext i1 @_ZNK19OpenColorIO_v2_4dev20DisplayViewTransform13getDataBypassEv(ptr noundef nonnull align 8 dereferenceable(16) %13) #13
  br i1 %call22, label %if.end27, label %if.then23

if.then23:                                        ; preds = %if.end
  %14 = load ptr, ptr %os.addr, align 8
  %call24 = call noundef nonnull align 8 dereferenceable(8) ptr @_ZStlsISt11char_traitsIcEERSt13basic_ostreamIcT_ES5_PKc(ptr noundef nonnull align 8 dereferenceable(8) %14, ptr noundef @.str.12)
  %15 = load ptr, ptr %t.addr, align 8
  %call25 = call noundef zeroext i1 @_ZNK19OpenColorIO_v2_4dev20DisplayViewTransform13getDataBypassEv(ptr noundef nonnull align 8 dereferenceable(16) %15) #13
  %call26 = call noundef nonnull align 8 dereferenceable(8) ptr @_ZNSolsEb(ptr noundef nonnull align 8 dereferenceable(8) %call24, i1 noundef zeroext %call25)
  br label %if.end27

if.end27:                                         ; preds = %if.then23, %if.end
  %16 = load ptr, ptr %os.addr, align 8
  %call28 = call noundef nonnull align 8 dereferenceable(8) ptr @_ZStlsISt11char_traitsIcEERSt13basic_ostreamIcT_ES5_PKc(ptr noundef nonnull align 8 dereferenceable(8) %16, ptr noundef @.str.13)
  %17 = load ptr, ptr %os.addr, align 8
  ret ptr %17
}